target datalayout = "e-m:e-p270:32:32-p271:32:32-p272:64:64-i64:64-i128:128-f80:128-n8:16:32:64-S128"
target triple = "x86_64-pc-linux-gnu"

%struct.packed_git = type { %struct.hashmap_entry, ptr, %struct.list_head, ptr, i64, ptr, i64, i32, i64, %struct.oidset, i32, i64, i32, i32, i8, [32 x i8], ptr, ptr, ptr, i64, ptr, i64, ptr, [0 x i8] }
%struct.hashmap_entry = type { ptr, i32 }
%struct.list_head = type { ptr, ptr }
%struct.oidset = type { %struct.kh_oid_set }
%struct.kh_oid_set = type { i32, i32, i32, i32, ptr, ptr, ptr }
%struct.repository = type { ptr, ptr, ptr, ptr, ptr, %struct.strmap, %struct.strmap, %struct.repo_path_cache, ptr, ptr, ptr, ptr, %struct.repo_settings, ptr, ptr, ptr, ptr, ptr, ptr, i32, i32, i32, ptr, ptr, i32, i32, i8 }
%struct.strmap = type { %struct.hashmap, ptr, i8 }
%struct.hashmap = type { ptr, ptr, ptr, i32, i32, i32, i32, i8 }
%struct.repo_path_cache = type { ptr, ptr, ptr, ptr, ptr, ptr, ptr }
%struct.repo_settings = type { i32, i32, i32, i32, i32, i32, i32, i32, i32, i32, i32, i32, ptr, i32, i32, i32, i32, i32, i32, i32, i64, i64, i64 }
%struct.git_hash_algo = type { ptr, i32, i64, i64, i64, ptr, ptr, ptr, ptr, ptr, ptr, ptr, ptr, ptr }

@the_repository = external global ptr, align 8

; Function Attrs: inlinehint nounwind uwtable
define internal i32 @default_swab32(i32 noundef %0) #3 {
  %2 = alloca i32, align 4
  store i32 %0, ptr %2, align 4, !tbaa !13
  %3 = load i32, ptr %2, align 4, !tbaa !13
  %4 = and i32 %3, -16777216
  %5 = lshr i32 %4, 24
  %6 = load i32, ptr %2, align 4, !tbaa !13
  %7 = and i32 %6, 16711680
  %8 = lshr i32 %7, 8
  %9 = or i32 %5, %8
  %10 = load i32, ptr %2, align 4, !tbaa !13
  %11 = and i32 %10, 65280
  %12 = shl i32 %11, 8
  %13 = or i32 %9, %12
  %14 = load i32, ptr %2, align 4, !tbaa !13
  %15 = and i32 %14, 255
  %16 = shl i32 %15, 24
  %17 = or i32 %13, %16
  ret i32 %17
}

; Function Attrs: inlinehint nounwind uwtable
define internal i32 @git_bswap32(i32 noundef %0) #3 {
  %2 = alloca i32, align 4
  %3 = alloca i32, align 4
  store i32 %0, ptr %2, align 4, !tbaa !13
  call void @llvm.lifetime.start.p0(i64 4, ptr %3) #8
  %4 = load i32, ptr %2, align 4, !tbaa !13
  %5 = call i1 @llvm.is.constant.i32(i32 %4)
  br i1 %5, label %6, label %9

6:                                                ; preds = %1
  %7 = load i32, ptr %2, align 4, !tbaa !13
  %8 = call i32 @default_swab32(i32 noundef %7)
  store i32 %8, ptr %3, align 4, !tbaa !13
  br label %12

9:                                                ; preds = %1
  %10 = load i32, ptr %2, align 4, !tbaa !13
  %11 = call i32 asm "bswap $0", "=r,0,~{dirflag},~{fpsr},~{flags}"(i32 %10) #9, !srcloc !44
  store i32 %11, ptr %3, align 4, !tbaa !13
  br label %12

12:                                               ; preds = %9, %6
  %13 = load i32, ptr %3, align 4, !tbaa !13
  call void @llvm.lifetime.end.p0(i64 4, ptr %3) #8
  ret i32 %13
}

; Function Attrs: nounwind uwtable
define dso_local i32 @check_pack_crc(ptr noundef %0, ptr noundef %1, i64 noundef %2, i64 noundef %3, i32 noundef %4) #0 {
  %6 = alloca ptr, align 8
  %7 = alloca ptr, align 8
  %8 = alloca i64, align 8
  %9 = alloca i64, align 8
  %10 = alloca i32, align 4
  %11 = alloca ptr, align 8
  %12 = alloca i32, align 4
  %13 = alloca i64, align 8
  %14 = alloca ptr, align 8
  store ptr %0, ptr %6, align 8, !tbaa !4
  store ptr %1, ptr %7, align 8, !tbaa !9
  store i64 %2, ptr %8, align 8, !tbaa !11
  store i64 %3, ptr %9, align 8, !tbaa !11
  store i32 %4, ptr %10, align 4, !tbaa !13
  call void @llvm.lifetime.start.p0(i64 8, ptr %11) #8
  call void @llvm.lifetime.start.p0(i64 4, ptr %12) #8
  %15 = call i64 @crc32(i64 noundef 0, ptr noundef null, i32 noundef 0)
  %16 = trunc i64 %15 to i32
  store i32 %16, ptr %12, align 4, !tbaa !13
  br label %17

17:                                               ; preds = %41, %5
  call void @llvm.lifetime.start.p0(i64 8, ptr %13) #8
  call void @llvm.lifetime.start.p0(i64 8, ptr %14) #8
  %18 = load ptr, ptr %6, align 8, !tbaa !4
  %19 = load ptr, ptr %7, align 8, !tbaa !9
  %20 = load i64, ptr %8, align 8, !tbaa !11
  %21 = call ptr @use_pack(ptr noundef %18, ptr noundef %19, i64 noundef %20, ptr noundef %13)
  store ptr %21, ptr %14, align 8, !tbaa !15
  %22 = load i64, ptr %13, align 8, !tbaa !11
  %23 = load i64, ptr %9, align 8, !tbaa !11
  %24 = icmp ugt i64 %22, %23
  br i1 %24, label %25, label %27

25:                                               ; preds = %17
  %26 = load i64, ptr %9, align 8, !tbaa !11
  store i64 %26, ptr %13, align 8, !tbaa !11
  br label %27

27:                                               ; preds = %25, %17
  %28 = load i32, ptr %12, align 4, !tbaa !13
  %29 = zext i32 %28 to i64
  %30 = load ptr, ptr %14, align 8, !tbaa !15
  %31 = load i64, ptr %13, align 8, !tbaa !11
  %32 = trunc i64 %31 to i32
  %33 = call i64 @crc32(i64 noundef %29, ptr noundef %30, i32 noundef %32)
  %34 = trunc i64 %33 to i32
  store i32 %34, ptr %12, align 4, !tbaa !13
  %35 = load i64, ptr %13, align 8, !tbaa !11
  %36 = load i64, ptr %8, align 8, !tbaa !11
  %37 = add i64 %36, %35
  store i64 %37, ptr %8, align 8, !tbaa !11
  %38 = load i64, ptr %13, align 8, !tbaa !11
  %39 = load i64, ptr %9, align 8, !tbaa !11
  %40 = sub i64 %39, %38
  store i64 %40, ptr %9, align 8, !tbaa !11
  call void @llvm.lifetime.end.p0(i64 8, ptr %14) #8
  call void @llvm.lifetime.end.p0(i64 8, ptr %13) #8
  br label %41

41:                                               ; preds = %27
  %42 = load i64, ptr %9, align 8, !tbaa !11
  %43 = icmp ne i64 %42, 0
  br i1 %43, label %17, label %44, !llvm.loop !16

44:                                               ; preds = %41
  %45 = load ptr, ptr %6, align 8, !tbaa !4
  %46 = getelementptr inbounds nuw %struct.packed_git, ptr %45, i32 0, i32 5
  %47 = load ptr, ptr %46, align 8, !tbaa !15
  store ptr %47, ptr %11, align 8, !tbaa !18
  %48 = load ptr, ptr %6, align 8, !tbaa !4
  %49 = getelementptr inbounds nuw %struct.packed_git, ptr %48, i32 0, i32 7
  %50 = load i32, ptr %49, align 8, !tbaa !13
  %51 = zext i32 %50 to i64
  %52 = load ptr, ptr @the_repository, align 8, !tbaa !20
  %53 = getelementptr inbounds nuw %struct.repository, ptr %52, i32 0, i32 17
  %54 = load ptr, ptr %53, align 8, !tbaa !22
  %55 = getelementptr inbounds nuw %struct.git_hash_algo, ptr %54, i32 0, i32 2
  %56 = load i64, ptr %55, align 8, !tbaa !41
  %57 = udiv i64 %56, 4
  %58 = mul i64 %51, %57
  %59 = add i64 258, %58
  %60 = load i32, ptr %10, align 4, !tbaa !13
  %61 = zext i32 %60 to i64
  %62 = add i64 %59, %61
  %63 = load ptr, ptr %11, align 8, !tbaa !18
  %64 = getelementptr inbounds nuw i32, ptr %63, i64 %62
  store ptr %64, ptr %11, align 8, !tbaa !18
  %65 = load i32, ptr %12, align 4, !tbaa !13
  %66 = load ptr, ptr %11, align 8, !tbaa !18
  %67 = load i32, ptr %66, align 4, !tbaa !13
  %68 = call i32 @git_bswap32(i32 noundef %67)
  %69 = icmp ne i32 %65, %68
  %70 = zext i1 %69 to i32
  call void @llvm.lifetime.end.p0(i64 4, ptr %12) #8
  call void @llvm.lifetime.end.p0(i64 8, ptr %11) #8
  ret i32 %70
}