; Function Attrs: nounwind uwtable
define dso_local range(i32 0, 2) i32 @check_pack_crc(ptr noundef %0, ptr noundef %1, i64 noundef %2, i64 noundef %3, i32 noundef %4) local_unnamed_addr #0 {
  %6 = alloca i64, align 8
  %7 = tail call i64 @crc32(i64 noundef 0, ptr noundef null, i32 noundef 0) #9
  br label %8

8:                                                ; preds = %13, %5
  %.016 = phi i64 [ %3, %5 ], [ %20, %13 ]
  %.015 = phi i64 [ %7, %5 ], [ %17, %13 ]
  %.0 = phi i64 [ %2, %5 ], [ %19, %13 ]
  call void @llvm.lifetime.start.p0(i64 8, ptr nonnull %6) #9
  %9 = call ptr @use_pack(ptr noundef %0, ptr noundef %1, i64 noundef %.0, ptr noundef nonnull %6) #9
  %10 = load i64, ptr %6, align 8, !tbaa !4
  %11 = icmp ugt i64 %10, %.016
  br i1 %11, label %12, label %13

12:                                               ; preds = %8
  store i64 %.016, ptr %6, align 8, !tbaa !4
  br label %13

13:                                               ; preds = %12, %8
  %14 = phi i64 [ %.016, %12 ], [ %10, %8 ]
  %15 = and i64 %.015, 4294967295
  %16 = trunc i64 %14 to i32
  %17 = call i64 @crc32(i64 noundef %15, ptr noundef %9, i32 noundef %16) #9
  %18 = load i64, ptr %6, align 8, !tbaa !4
  %19 = add i64 %18, %.0
  %20 = sub i64 %.016, %18
  call void @llvm.lifetime.end.p0(i64 8, ptr nonnull %6) #9
  %.not = icmp eq i64 %20, 0
  br i1 %.not, label %git_bswap32.exit, label %8, !llvm.loop !8

git_bswap32.exit:                                 ; preds = %13
  %21 = getelementptr inbounds nuw i8, ptr %0, i64 56
  %22 = load ptr, ptr %21, align 8, !tbaa !10
  %23 = load ptr, ptr @the_repository, align 8, !tbaa !12
  %24 = getelementptr inbounds nuw i8, ptr %23, i64 400
  %25 = load ptr, ptr %24, align 8, !tbaa !14
  %26 = getelementptr inbounds nuw i8, ptr %25, i64 16
  %27 = load i64, ptr %26, align 8, !tbaa !34
  %28 = lshr i64 %27, 2
  %29 = getelementptr inbounds nuw i8, ptr %0, i64 72
  %30 = load i32, ptr %29, align 8, !tbaa !37
  %31 = zext i32 %30 to i64
  %32 = mul i64 %28, %31
  %33 = getelementptr i32, ptr %22, i64 %32
  %34 = getelementptr i8, ptr %33, i64 1032
  %35 = zext i32 %4 to i64
  %36 = getelementptr i32, ptr %34, i64 %35
  %37 = load i32, ptr %36, align 4, !tbaa !37
  %38 = call i32 asm "bswap $0", "=r,0,~{dirflag},~{fpsr},~{flags}"(i32 %37) #10, !srcloc !38
  %39 = trunc i64 %17 to i32
  %40 = icmp ne i32 %38, %39
  %41 = zext i1 %40 to i32
  ret i32 %41
}